target datalayout = "e-m:e-p270:32:32-p271:32:32-p272:64:64-i64:64-i128:128-f80:128-n8:16:32:64-S128"
target triple = "x86_64-pc-linux-gnu"

%"class.datalog::rule_dependencies" = type { %class.obj_map, ptr, %class.ptr_vector, %class.expr_sparse_mark, %class.obj_hashtable.2 }
%class.obj_map = type { %class.core_hashtable }
%class.core_hashtable = type <{ ptr, i32, i32, i32, [4 x i8] }>
%class.ptr_vector = type { %class.vector }
%class.vector = type { ptr }
%class.expr_sparse_mark = type { %class.obj_hashtable }
%class.obj_hashtable = type { %class.core_hashtable.base.1, [4 x i8] }
%class.core_hashtable.base.1 = type <{ ptr, i32, i32, i32 }>
%class.obj_hashtable.2 = type { %class.core_hashtable.base.6, [4 x i8] }
%class.core_hashtable.base.6 = type <{ ptr, i32, i32, i32 }>
%"class.core_hashtable<obj_map<func_decl, obj_hashtable<func_decl> *>::obj_map_entry, obj_hash<obj_map<func_decl, obj_hashtable<func_decl> *>::key_data>, default_eq<obj_map<func_decl, obj_hashtable<func_decl> *>::key_data>>::iterator" = type { ptr, ptr }
%"struct.obj_map<func_decl, obj_hashtable<func_decl> *>::key_data" = type { ptr, ptr }
%"class.obj_map<func_decl, obj_hashtable<func_decl> *>::obj_map_entry" = type { %"struct.obj_map<func_decl, obj_hashtable<func_decl> *>::key_data" }

; Function Attrs: mustprogress uwtable
define linkonce_odr hidden void @_ZN14core_hashtableIN7obj_mapI9func_declP13obj_hashtableIS1_EE13obj_map_entryE8obj_hashINS5_8key_dataEE10default_eqIS8_EE8iteratorC2EPS6_SE_(ptr noundef nonnull align 8 dereferenceable(16) %0, ptr noundef %1, ptr noundef %2) unnamed_addr #4 comdat align 2 {
  %4 = alloca ptr, align 8
  %5 = alloca ptr, align 8
  %6 = alloca ptr, align 8
  store ptr %0, ptr %4, align 8, !tbaa !48
  store ptr %1, ptr %5, align 8, !tbaa !63
  store ptr %2, ptr %6, align 8, !tbaa !63
  %7 = load ptr, ptr %4, align 8
  %8 = getelementptr inbounds nuw %"class.core_hashtable<obj_map<func_decl, obj_hashtable<func_decl> *>::obj_map_entry, obj_hash<obj_map<func_decl, obj_hashtable<func_decl> *>::key_data>, default_eq<obj_map<func_decl, obj_hashtable<func_decl> *>::key_data>>::iterator", ptr %7, i32 0, i32 0
  %9 = load ptr, ptr %5, align 8, !tbaa !63
  store ptr %9, ptr %8, align 8, !tbaa !50
  %10 = getelementptr inbounds nuw %"class.core_hashtable<obj_map<func_decl, obj_hashtable<func_decl> *>::obj_map_entry, obj_hash<obj_map<func_decl, obj_hashtable<func_decl> *>::key_data>, default_eq<obj_map<func_decl, obj_hashtable<func_decl> *>::key_data>>::iterator", ptr %7, i32 0, i32 1
  %11 = load ptr, ptr %6, align 8, !tbaa !63
  store ptr %11, ptr %10, align 8, !tbaa !423
  call void @_ZN14core_hashtableIN7obj_mapI9func_declP13obj_hashtableIS1_EE13obj_map_entryE8obj_hashINS5_8key_dataEE10default_eqIS8_EE8iterator12move_to_usedEv(ptr noundef nonnull align 8 dereferenceable(16) %7)
  ret void
}

; Function Attrs: mustprogress nounwind uwtable
define linkonce_odr hidden noundef zeroext i1 @_ZNK7obj_mapI9func_declP13obj_hashtableIS0_EE13obj_map_entry7is_usedEv(ptr noundef nonnull align 8 dereferenceable(16) %0) #5 comdat align 2 {
  %2 = alloca ptr, align 8
  store ptr %0, ptr %2, align 8, !tbaa !63
  %3 = load ptr, ptr %2, align 8
  %4 = getelementptr inbounds nuw %"class.obj_map<func_decl, obj_hashtable<func_decl> *>::obj_map_entry", ptr %3, i32 0, i32 0
  %5 = getelementptr inbounds nuw %"struct.obj_map<func_decl, obj_hashtable<func_decl> *>::key_data", ptr %4, i32 0, i32 0
  %6 = load ptr, ptr %5, align 8, !tbaa !425
  %7 = icmp ne ptr %6, null
  br i1 %7, label %8, label %13

8:                                                ; preds = %1
  %9 = getelementptr inbounds nuw %"class.obj_map<func_decl, obj_hashtable<func_decl> *>::obj_map_entry", ptr %3, i32 0, i32 0
  %10 = getelementptr inbounds nuw %"struct.obj_map<func_decl, obj_hashtable<func_decl> *>::key_data", ptr %9, i32 0, i32 0
  %11 = load ptr, ptr %10, align 8, !tbaa !425
  %12 = icmp ne ptr %11, inttoptr (i64 1 to ptr)
  br label %13

13:                                               ; preds = %8, %1
  %14 = phi i1 [ false, %1 ], [ %12, %8 ]
  ret i1 %14
}

; Function Attrs: mustprogress uwtable
define linkonce_odr hidden { ptr, ptr } @_ZNK14core_hashtableIN7obj_mapI9func_declP13obj_hashtableIS1_EE13obj_map_entryE8obj_hashINS5_8key_dataEE10default_eqIS8_EE3endEv(ptr noundef nonnull align 8 dereferenceable(20) %0) #4 comdat align 2 {
  %2 = alloca %"class.core_hashtable<obj_map<func_decl, obj_hashtable<func_decl> *>::obj_map_entry, obj_hash<obj_map<func_decl, obj_hashtable<func_decl> *>::key_data>, default_eq<obj_map<func_decl, obj_hashtable<func_decl> *>::key_data>>::iterator", align 8
  %3 = alloca ptr, align 8
  store ptr %0, ptr %3, align 8, !tbaa !417
  %4 = load ptr, ptr %3, align 8
  %5 = getelementptr inbounds nuw %class.core_hashtable, ptr %4, i32 0, i32 0
  %6 = load ptr, ptr %5, align 8, !tbaa !419
  %7 = getelementptr inbounds nuw %class.core_hashtable, ptr %4, i32 0, i32 1
  %8 = load i32, ptr %7, align 8, !tbaa !420
  %9 = zext i32 %8 to i64
  %10 = getelementptr inbounds nuw %"class.obj_map<func_decl, obj_hashtable<func_decl> *>::obj_map_entry", ptr %6, i64 %9
  %11 = getelementptr inbounds nuw %class.core_hashtable, ptr %4, i32 0, i32 0
  %12 = load ptr, ptr %11, align 8, !tbaa !419
  %13 = getelementptr inbounds nuw %class.core_hashtable, ptr %4, i32 0, i32 1
  %14 = load i32, ptr %13, align 8, !tbaa !420
  %15 = zext i32 %14 to i64
  %16 = getelementptr inbounds nuw %"class.obj_map<func_decl, obj_hashtable<func_decl> *>::obj_map_entry", ptr %12, i64 %15
  call void @_ZN14core_hashtableIN7obj_mapI9func_declP13obj_hashtableIS1_EE13obj_map_entryE8obj_hashINS5_8key_dataEE10default_eqIS8_EE8iteratorC2EPS6_SE_(ptr noundef nonnull align 8 dereferenceable(16) %2, ptr noundef %10, ptr noundef %16)
  %17 = load { ptr, ptr }, ptr %2, align 8
  ret { ptr, ptr } %17
}

; Function Attrs: mustprogress uwtable
define linkonce_odr hidden { ptr, ptr } @_ZNK14core_hashtableIN7obj_mapI9func_declP13obj_hashtableIS1_EE13obj_map_entryE8obj_hashINS5_8key_dataEE10default_eqIS8_EE5beginEv(ptr noundef nonnull align 8 dereferenceable(20) %0) #4 comdat align 2 {
  %2 = alloca %"class.core_hashtable<obj_map<func_decl, obj_hashtable<func_decl> *>::obj_map_entry, obj_hash<obj_map<func_decl, obj_hashtable<func_decl> *>::key_data>, default_eq<obj_map<func_decl, obj_hashtable<func_decl> *>::key_data>>::iterator", align 8
  %3 = alloca ptr, align 8
  store ptr %0, ptr %3, align 8, !tbaa !417
  %4 = load ptr, ptr %3, align 8
  %5 = getelementptr inbounds nuw %class.core_hashtable, ptr %4, i32 0, i32 0
  %6 = load ptr, ptr %5, align 8, !tbaa !419
  %7 = getelementptr inbounds nuw %class.core_hashtable, ptr %4, i32 0, i32 0
  %8 = load ptr, ptr %7, align 8, !tbaa !419
  %9 = getelementptr inbounds nuw %class.core_hashtable, ptr %4, i32 0, i32 1
  %10 = load i32, ptr %9, align 8, !tbaa !420
  %11 = zext i32 %10 to i64
  %12 = getelementptr inbounds nuw %"class.obj_map<func_decl, obj_hashtable<func_decl> *>::obj_map_entry", ptr %8, i64 %11
  call void @_ZN14core_hashtableIN7obj_mapI9func_declP13obj_hashtableIS1_EE13obj_map_entryE8obj_hashINS5_8key_dataEE10default_eqIS8_EE8iteratorC2EPS6_SE_(ptr noundef nonnull align 8 dereferenceable(16) %2, ptr noundef %6, ptr noundef %12)
  %13 = load { ptr, ptr }, ptr %2, align 8
  ret { ptr, ptr } %13
}

; Function Attrs: mustprogress uwtable
define linkonce_odr hidden void @_ZN14core_hashtableIN7obj_mapI9func_declP13obj_hashtableIS1_EE13obj_map_entryE8obj_hashINS5_8key_dataEE10default_eqIS8_EE8iterator12move_to_usedEv(ptr noundef nonnull align 8 dereferenceable(16) %0) #4 comdat align 2 {
  %2 = alloca ptr, align 8
  store ptr %0, ptr %2, align 8, !tbaa !48
  %3 = load ptr, ptr %2, align 8
  br label %4

4:                                                ; preds = %17, %1
  %5 = getelementptr inbounds nuw %"class.core_hashtable<obj_map<func_decl, obj_hashtable<func_decl> *>::obj_map_entry, obj_hash<obj_map<func_decl, obj_hashtable<func_decl> *>::key_data>, default_eq<obj_map<func_decl, obj_hashtable<func_decl> *>::key_data>>::iterator", ptr %3, i32 0, i32 0
  %6 = load ptr, ptr %5, align 8, !tbaa !50
  %7 = getelementptr inbounds nuw %"class.core_hashtable<obj_map<func_decl, obj_hashtable<func_decl> *>::obj_map_entry, obj_hash<obj_map<func_decl, obj_hashtable<func_decl> *>::key_data>, default_eq<obj_map<func_decl, obj_hashtable<func_decl> *>::key_data>>::iterator", ptr %3, i32 0, i32 1
  %8 = load ptr, ptr %7, align 8, !tbaa !423
  %9 = icmp ne ptr %6, %8
  br i1 %9, label %10, label %15

10:                                               ; preds = %4
  %11 = getelementptr inbounds nuw %"class.core_hashtable<obj_map<func_decl, obj_hashtable<func_decl> *>::obj_map_entry, obj_hash<obj_map<func_decl, obj_hashtable<func_decl> *>::key_data>, default_eq<obj_map<func_decl, obj_hashtable<func_decl> *>::key_data>>::iterator", ptr %3, i32 0, i32 0
  %12 = load ptr, ptr %11, align 8, !tbaa !50
  %13 = call noundef zeroext i1 @_ZNK7obj_mapI9func_declP13obj_hashtableIS0_EE13obj_map_entry7is_usedEv(ptr noundef nonnull align 8 dereferenceable(16) %12)
  %14 = xor i1 %13, true
  br label %15

15:                                               ; preds = %10, %4
  %16 = phi i1 [ false, %4 ], [ %14, %10 ]
  br i1 %16, label %17, label %21

17:                                               ; preds = %15
  %18 = getelementptr inbounds nuw %"class.core_hashtable<obj_map<func_decl, obj_hashtable<func_decl> *>::obj_map_entry, obj_hash<obj_map<func_decl, obj_hashtable<func_decl> *>::key_data>, default_eq<obj_map<func_decl, obj_hashtable<func_decl> *>::key_data>>::iterator", ptr %3, i32 0, i32 0
  %19 = load ptr, ptr %18, align 8, !tbaa !50
  %20 = getelementptr inbounds nuw %"class.obj_map<func_decl, obj_hashtable<func_decl> *>::obj_map_entry", ptr %19, i32 1
  store ptr %20, ptr %18, align 8, !tbaa !50
  br label %4, !llvm.loop !424

21:                                               ; preds = %15
  ret void
}

; Function Attrs: mustprogress nounwind uwtable
define linkonce_odr hidden noundef nonnull align 8 dereferenceable(16) ptr @_ZN7obj_mapI9func_declP13obj_hashtableIS0_EE13obj_map_entry8get_dataEv(ptr noundef nonnull align 8 dereferenceable(16) %0) #5 comdat align 2 {
  %2 = alloca ptr, align 8
  store ptr %0, ptr %2, align 8, !tbaa !63
  %3 = load ptr, ptr %2, align 8
  %4 = getelementptr inbounds nuw %"class.obj_map<func_decl, obj_hashtable<func_decl> *>::obj_map_entry", ptr %3, i32 0, i32 0
  ret ptr %4
}

; Function Attrs: mustprogress uwtable
define linkonce_odr hidden { ptr, ptr } @_ZNK7obj_mapI9func_declP13obj_hashtableIS0_EE3endEv(ptr noundef nonnull align 8 dereferenceable(24) %0) #4 comdat align 2 {
  %2 = alloca %"class.core_hashtable<obj_map<func_decl, obj_hashtable<func_decl> *>::obj_map_entry, obj_hash<obj_map<func_decl, obj_hashtable<func_decl> *>::key_data>, default_eq<obj_map<func_decl, obj_hashtable<func_decl> *>::key_data>>::iterator", align 8
  %3 = alloca ptr, align 8
  store ptr %0, ptr %3, align 8, !tbaa !10
  %4 = load ptr, ptr %3, align 8
  %5 = getelementptr inbounds nuw %class.obj_map, ptr %4, i32 0, i32 0
  %6 = call { ptr, ptr } @_ZNK14core_hashtableIN7obj_mapI9func_declP13obj_hashtableIS1_EE13obj_map_entryE8obj_hashINS5_8key_dataEE10default_eqIS8_EE3endEv(ptr noundef nonnull align 8 dereferenceable(20) %5)
  %7 = getelementptr inbounds nuw { ptr, ptr }, ptr %2, i32 0, i32 0
  %8 = extractvalue { ptr, ptr } %6, 0
  store ptr %8, ptr %7, align 8
  %9 = getelementptr inbounds nuw { ptr, ptr }, ptr %2, i32 0, i32 1
  %10 = extractvalue { ptr, ptr } %6, 1
  store ptr %10, ptr %9, align 8
  %11 = load { ptr, ptr }, ptr %2, align 8
  ret { ptr, ptr } %11
}

; Function Attrs: mustprogress uwtable
define linkonce_odr hidden { ptr, ptr } @_ZNK7obj_mapI9func_declP13obj_hashtableIS0_EE5beginEv(ptr noundef nonnull align 8 dereferenceable(24) %0) #4 comdat align 2 {
  %2 = alloca %"class.core_hashtable<obj_map<func_decl, obj_hashtable<func_decl> *>::obj_map_entry, obj_hash<obj_map<func_decl, obj_hashtable<func_decl> *>::key_data>, default_eq<obj_map<func_decl, obj_hashtable<func_decl> *>::key_data>>::iterator", align 8
  %3 = alloca ptr, align 8
  store ptr %0, ptr %3, align 8, !tbaa !10
  %4 = load ptr, ptr %3, align 8
  %5 = getelementptr inbounds nuw %class.obj_map, ptr %4, i32 0, i32 0
  %6 = call { ptr, ptr } @_ZNK14core_hashtableIN7obj_mapI9func_declP13obj_hashtableIS1_EE13obj_map_entryE8obj_hashINS5_8key_dataEE10default_eqIS8_EE5beginEv(ptr noundef nonnull align 8 dereferenceable(20) %5)
  %7 = getelementptr inbounds nuw { ptr, ptr }, ptr %2, i32 0, i32 0
  %8 = extractvalue { ptr, ptr } %6, 0
  store ptr %8, ptr %7, align 8
  %9 = getelementptr inbounds nuw { ptr, ptr }, ptr %2, i32 0, i32 1
  %10 = extractvalue { ptr, ptr } %6, 1
  store ptr %10, ptr %9, align 8
  %11 = load { ptr, ptr }, ptr %2, align 8
  ret { ptr, ptr } %11
}

; Function Attrs: mustprogress uwtable
define linkonce_odr hidden noundef nonnull align 8 dereferenceable(16) ptr @_ZN14core_hashtableIN7obj_mapI9func_declP13obj_hashtableIS1_EE13obj_map_entryE8obj_hashINS5_8key_dataEE10default_eqIS8_EE8iteratorppEv(ptr noundef nonnull align 8 dereferenceable(16) %0) #4 comdat align 2 {
  %2 = alloca ptr, align 8
  store ptr %0, ptr %2, align 8, !tbaa !48
  %3 = load ptr, ptr %2, align 8
  %4 = getelementptr inbounds nuw %"class.core_hashtable<obj_map<func_decl, obj_hashtable<func_decl> *>::obj_map_entry, obj_hash<obj_map<func_decl, obj_hashtable<func_decl> *>::key_data>, default_eq<obj_map<func_decl, obj_hashtable<func_decl> *>::key_data>>::iterator", ptr %3, i32 0, i32 0
  %5 = load ptr, ptr %4, align 8, !tbaa !50
  %6 = getelementptr inbounds nuw %"class.obj_map<func_decl, obj_hashtable<func_decl> *>::obj_map_entry", ptr %5, i32 1
  store ptr %6, ptr %4, align 8, !tbaa !50
  call void @_ZN14core_hashtableIN7obj_mapI9func_declP13obj_hashtableIS1_EE13obj_map_entryE8obj_hashINS5_8key_dataEE10default_eqIS8_EE8iterator12move_to_usedEv(ptr noundef nonnull align 8 dereferenceable(16) %3)
  ret ptr %3
}

; Function Attrs: mustprogress nounwind uwtable
define linkonce_odr hidden noundef nonnull align 8 dereferenceable(8) ptr @_ZNK7obj_mapI9func_declP13obj_hashtableIS0_EE8key_data9get_valueEv(ptr noundef nonnull align 8 dereferenceable(16) %0) #5 comdat align 2 {
  %2 = alloca ptr, align 8
  store ptr %0, ptr %2, align 8, !tbaa !42
  %3 = load ptr, ptr %2, align 8
  %4 = getelementptr inbounds nuw %"struct.obj_map<func_decl, obj_hashtable<func_decl> *>::key_data", ptr %3, i32 0, i32 1
  ret ptr %4
}

; Function Attrs: mustprogress uwtable
define linkonce_odr hidden noundef nonnull align 8 dereferenceable(16) ptr @_ZN14core_hashtableIN7obj_mapI9func_declP13obj_hashtableIS1_EE13obj_map_entryE8obj_hashINS5_8key_dataEE10default_eqIS8_EE8iteratordeEv(ptr noundef nonnull align 8 dereferenceable(16) %0) #4 comdat align 2 {
  %2 = alloca ptr, align 8
  store ptr %0, ptr %2, align 8, !tbaa !48
  %3 = load ptr, ptr %2, align 8
  %4 = getelementptr inbounds nuw %"class.core_hashtable<obj_map<func_decl, obj_hashtable<func_decl> *>::obj_map_entry, obj_hash<obj_map<func_decl, obj_hashtable<func_decl> *>::key_data>, default_eq<obj_map<func_decl, obj_hashtable<func_decl> *>::key_data>>::iterator", ptr %3, i32 0, i32 0
  %5 = load ptr, ptr %4, align 8, !tbaa !50
  %6 = call noundef nonnull align 8 dereferenceable(16) ptr @_ZN7obj_mapI9func_declP13obj_hashtableIS0_EE13obj_map_entry8get_dataEv(ptr noundef nonnull align 8 dereferenceable(16) %5)
  ret ptr %6
}

; Function Attrs: mustprogress nounwind uwtable
define linkonce_odr hidden noundef zeroext i1 @_ZNK14core_hashtableIN7obj_mapI9func_declP13obj_hashtableIS1_EE13obj_map_entryE8obj_hashINS5_8key_dataEE10default_eqIS8_EE8iteratorneERKSD_(ptr noundef nonnull align 8 dereferenceable(16) %0, ptr noundef nonnull align 8 dereferenceable(16) %1) #5 comdat align 2 {
  %3 = alloca ptr, align 8
  %4 = alloca ptr, align 8
  store ptr %0, ptr %3, align 8, !tbaa !48
  store ptr %1, ptr %4, align 8, !tbaa !48
  %5 = load ptr, ptr %3, align 8
  %6 = getelementptr inbounds nuw %"class.core_hashtable<obj_map<func_decl, obj_hashtable<func_decl> *>::obj_map_entry, obj_hash<obj_map<func_decl, obj_hashtable<func_decl> *>::key_data>, default_eq<obj_map<func_decl, obj_hashtable<func_decl> *>::key_data>>::iterator", ptr %5, i32 0, i32 0
  %7 = load ptr, ptr %6, align 8, !tbaa !50
  %8 = load ptr, ptr %4, align 8, !tbaa !48
  %9 = getelementptr inbounds nuw %"class.core_hashtable<obj_map<func_decl, obj_hashtable<func_decl> *>::obj_map_entry, obj_hash<obj_map<func_decl, obj_hashtable<func_decl> *>::key_data>, default_eq<obj_map<func_decl, obj_hashtable<func_decl> *>::key_data>>::iterator", ptr %8, i32 0, i32 0
  %10 = load ptr, ptr %9, align 8, !tbaa !50
  %11 = icmp ne ptr %7, %10
  ret i1 %11
}

; Function Attrs: mustprogress uwtable
define linkonce_odr hidden { ptr, ptr } @_ZNK7datalog17rule_dependencies3endEv(ptr noundef nonnull align 8 dereferenceable(88) %0) #4 comdat align 2 {
  %2 = alloca %"class.core_hashtable<obj_map<func_decl, obj_hashtable<func_decl> *>::obj_map_entry, obj_hash<obj_map<func_decl, obj_hashtable<func_decl> *>::key_data>, default_eq<obj_map<func_decl, obj_hashtable<func_decl> *>::key_data>>::iterator", align 8
  %3 = alloca ptr, align 8
  store ptr %0, ptr %3, align 8, !tbaa !3
  %4 = load ptr, ptr %3, align 8
  %5 = getelementptr inbounds nuw %"class.datalog::rule_dependencies", ptr %4, i32 0, i32 0
  %6 = call { ptr, ptr } @_ZNK7obj_mapI9func_declP13obj_hashtableIS0_EE3endEv(ptr noundef nonnull align 8 dereferenceable(24) %5)
  %7 = getelementptr inbounds nuw { ptr, ptr }, ptr %2, i32 0, i32 0
  %8 = extractvalue { ptr, ptr } %6, 0
  store ptr %8, ptr %7, align 8
  %9 = getelementptr inbounds nuw { ptr, ptr }, ptr %2, i32 0, i32 1
  %10 = extractvalue { ptr, ptr } %6, 1
  store ptr %10, ptr %9, align 8
  %11 = load { ptr, ptr }, ptr %2, align 8
  ret { ptr, ptr } %11
}

; Function Attrs: mustprogress uwtable
define linkonce_odr hidden { ptr, ptr } @_ZNK7datalog17rule_dependencies5beginEv(ptr noundef nonnull align 8 dereferenceable(88) %0) #4 comdat align 2 {
  %2 = alloca %"class.core_hashtable<obj_map<func_decl, obj_hashtable<func_decl> *>::obj_map_entry, obj_hash<obj_map<func_decl, obj_hashtable<func_decl> *>::key_data>, default_eq<obj_map<func_decl, obj_hashtable<func_decl> *>::key_data>>::iterator", align 8
  %3 = alloca ptr, align 8
  store ptr %0, ptr %3, align 8, !tbaa !3
  %4 = load ptr, ptr %3, align 8
  %5 = getelementptr inbounds nuw %"class.datalog::rule_dependencies", ptr %4, i32 0, i32 0
  %6 = call { ptr, ptr } @_ZNK7obj_mapI9func_declP13obj_hashtableIS0_EE5beginEv(ptr noundef nonnull align 8 dereferenceable(24) %5)
  %7 = getelementptr inbounds nuw { ptr, ptr }, ptr %2, i32 0, i32 0
  %8 = extractvalue { ptr, ptr } %6, 0
  store ptr %8, ptr %7, align 8
  %9 = getelementptr inbounds nuw { ptr, ptr }, ptr %2, i32 0, i32 1
  %10 = extractvalue { ptr, ptr } %6, 1
  store ptr %10, ptr %9, align 8
  %11 = load { ptr, ptr }, ptr %2, align 8
  ret { ptr, ptr } %11
}

; Function Attrs: mustprogress uwtable
define hidden void @_ZN7datalog17rule_dependencies6removeEP9func_decl(ptr noundef nonnull align 8 dereferenceable(88) %0, ptr noundef %1) #4 align 2 {
  %3 = alloca ptr, align 8
  %4 = alloca ptr, align 8
  %5 = alloca ptr, align 8
  %6 = alloca %"class.core_hashtable<obj_map<func_decl, obj_hashtable<func_decl> *>::obj_map_entry, obj_hash<obj_map<func_decl, obj_hashtable<func_decl> *>::key_data>, default_eq<obj_map<func_decl, obj_hashtable<func_decl> *>::key_data>>::iterator", align 8
  %7 = alloca %"class.core_hashtable<obj_map<func_decl, obj_hashtable<func_decl> *>::obj_map_entry, obj_hash<obj_map<func_decl, obj_hashtable<func_decl> *>::key_data>, default_eq<obj_map<func_decl, obj_hashtable<func_decl> *>::key_data>>::iterator", align 8
  %8 = alloca ptr, align 8
  store ptr %0, ptr %3, align 8, !tbaa !3
  store ptr %1, ptr %4, align 8, !tbaa !47
  %9 = load ptr, ptr %3, align 8
  %10 = load ptr, ptr %4, align 8, !tbaa !47
  call void @_ZN7datalog17rule_dependencies19remove_m_data_entryEP9func_decl(ptr noundef nonnull align 8 dereferenceable(88) %9, ptr noundef %10)
  call void @llvm.lifetime.start.p0(i64 8, ptr %5) #3
  store ptr %9, ptr %5, align 8, !tbaa !3
  call void @llvm.lifetime.start.p0(i64 16, ptr %6) #3
  %11 = load ptr, ptr %5, align 8, !tbaa !3
  %12 = call { ptr, ptr } @_ZNK7datalog17rule_dependencies5beginEv(ptr noundef nonnull align 8 dereferenceable(88) %11)
  %13 = getelementptr inbounds nuw { ptr, ptr }, ptr %6, i32 0, i32 0
  %14 = extractvalue { ptr, ptr } %12, 0
  store ptr %14, ptr %13, align 8
  %15 = getelementptr inbounds nuw { ptr, ptr }, ptr %6, i32 0, i32 1
  %16 = extractvalue { ptr, ptr } %12, 1
  store ptr %16, ptr %15, align 8
  call void @llvm.lifetime.start.p0(i64 16, ptr %7) #3
  %17 = load ptr, ptr %5, align 8, !tbaa !3
  %18 = call { ptr, ptr } @_ZNK7datalog17rule_dependencies3endEv(ptr noundef nonnull align 8 dereferenceable(88) %17)
  %19 = getelementptr inbounds nuw { ptr, ptr }, ptr %7, i32 0, i32 0
  %20 = extractvalue { ptr, ptr } %18, 0
  store ptr %20, ptr %19, align 8
  %21 = getelementptr inbounds nuw { ptr, ptr }, ptr %7, i32 0, i32 1
  %22 = extractvalue { ptr, ptr } %18, 1
  store ptr %22, ptr %21, align 8
  br label %23

23:                                               ; preds = %31, %2
  %24 = call noundef zeroext i1 @_ZNK14core_hashtableIN7obj_mapI9func_declP13obj_hashtableIS1_EE13obj_map_entryE8obj_hashINS5_8key_dataEE10default_eqIS8_EE8iteratorneERKSD_(ptr noundef nonnull align 8 dereferenceable(16) %6, ptr noundef nonnull align 8 dereferenceable(16) %7)
  br i1 %24, label %26, label %25

25:                                               ; preds = %23
  call void @llvm.lifetime.end.p0(i64 16, ptr %7) #3
  call void @llvm.lifetime.end.p0(i64 16, ptr %6) #3
  call void @llvm.lifetime.end.p0(i64 8, ptr %5) #3
  br label %33

26:                                               ; preds = %23
  call void @llvm.lifetime.start.p0(i64 8, ptr %8) #3
  %27 = call noundef nonnull align 8 dereferenceable(16) ptr @_ZN14core_hashtableIN7obj_mapI9func_declP13obj_hashtableIS1_EE13obj_map_entryE8obj_hashINS5_8key_dataEE10default_eqIS8_EE8iteratordeEv(ptr noundef nonnull align 8 dereferenceable(16) %6)
  store ptr %27, ptr %8, align 8, !tbaa !42
  %28 = load ptr, ptr %8, align 8, !tbaa !42
  %29 = call noundef nonnull align 8 dereferenceable(8) ptr @_ZNK7obj_mapI9func_declP13obj_hashtableIS0_EE8key_data9get_valueEv(ptr noundef nonnull align 8 dereferenceable(16) %28)
  %30 = load ptr, ptr %29, align 8, !tbaa !16
  call void @_ZN14core_hashtableI14obj_hash_entryI9func_declE12obj_ptr_hashIS1_E6ptr_eqIS1_EE6removeERKPS1_(ptr noundef nonnull align 8 dereferenceable(20) %30, ptr noundef nonnull align 8 dereferenceable(8) %4)
  call void @llvm.lifetime.end.p0(i64 8, ptr %8) #3
  br label %31

31:                                               ; preds = %26
  %32 = call noundef nonnull align 8 dereferenceable(16) ptr @_ZN14core_hashtableIN7obj_mapI9func_declP13obj_hashtableIS1_EE13obj_map_entryE8obj_hashINS5_8key_dataEE10default_eqIS8_EE8iteratorppEv(ptr noundef nonnull align 8 dereferenceable(16) %6)
  br label %23

33:                                               ; preds = %25
  ret void
}