; Function Attrs: mustprogress uwtable
define hidden void @_ZN7datalog17rule_dependencies6removeEP9func_decl(ptr noundef nonnull align 8 dereferenceable(88) %0, ptr noundef %1) local_unnamed_addr #3 align 2 {
  %3 = alloca ptr, align 8
  store ptr %1, ptr %3, align 8, !tbaa !53
  tail call void @_ZN7datalog17rule_dependencies19remove_m_data_entryEP9func_decl(ptr noundef nonnull align 8 dereferenceable(88) %0, ptr noundef %1)
  %4 = load ptr, ptr %0, align 8, !tbaa !3
  %5 = getelementptr inbounds nuw i8, ptr %0, i64 8
  %6 = load i32, ptr %5, align 8, !tbaa !10
  %7 = zext i32 %6 to i64
  %8 = getelementptr inbounds nuw %"class.obj_map<func_decl, obj_hashtable<func_decl> *>::obj_map_entry", ptr %4, i64 %7
  %.not1.i.i.i.i.i = icmp eq i32 %6, 0
  br i1 %.not1.i.i.i.i.i, label %_ZNK7datalog17rule_dependencies5beginEv.exit, label %.lr.ph.i.i.i.i.i

.lr.ph.i.i.i.i.i:                                 ; preds = %2, %10
  %.sroa.0.0.i.i.i = phi ptr [ %11, %10 ], [ %4, %2 ]
  %9 = load ptr, ptr %.sroa.0.0.i.i.i, align 8, !tbaa !44
  %switch.i.i.i.i.i = icmp ult ptr %9, inttoptr (i64 2 to ptr)
  br i1 %switch.i.i.i.i.i, label %10, label %_ZNK7datalog17rule_dependencies5beginEv.exit

10:                                               ; preds = %.lr.ph.i.i.i.i.i
  %11 = getelementptr inbounds nuw i8, ptr %.sroa.0.0.i.i.i, i64 16
  %.not.i.i.i.i.i = icmp eq ptr %11, %8
  br i1 %.not.i.i.i.i.i, label %._crit_edge, label %.lr.ph.i.i.i.i.i, !llvm.loop !48

_ZNK7datalog17rule_dependencies5beginEv.exit:     ; preds = %.lr.ph.i.i.i.i.i, %2
  %.sroa.0.1.i.i.i = phi ptr [ %4, %2 ], [ %.sroa.0.0.i.i.i, %.lr.ph.i.i.i.i.i ]
  %.not9 = icmp eq ptr %.sroa.0.1.i.i.i, %8
  br i1 %.not9, label %._crit_edge, label %.lr.ph

._crit_edge:                                      ; preds = %10, %_ZN14core_hashtableIN7obj_mapI9func_declP13obj_hashtableIS1_EE13obj_map_entryE8obj_hashINS5_8key_dataEE10default_eqIS8_EE8iteratorppEv.exit, %_ZNK7datalog17rule_dependencies5beginEv.exit
  ret void

.lr.ph:                                           ; preds = %_ZNK7datalog17rule_dependencies5beginEv.exit, %_ZN14core_hashtableIN7obj_mapI9func_declP13obj_hashtableIS1_EE13obj_map_entryE8obj_hashINS5_8key_dataEE10default_eqIS8_EE8iteratorppEv.exit
  %.sroa.06.010 = phi ptr [ %.sroa.06.2, %_ZN14core_hashtableIN7obj_mapI9func_declP13obj_hashtableIS1_EE13obj_map_entryE8obj_hashINS5_8key_dataEE10default_eqIS8_EE8iteratorppEv.exit ], [ %.sroa.0.1.i.i.i, %_ZNK7datalog17rule_dependencies5beginEv.exit ]
  %12 = getelementptr inbounds nuw i8, ptr %.sroa.06.010, i64 8
  %13 = load ptr, ptr %12, align 8, !tbaa !51
  call void @_ZN14core_hashtableI14obj_hash_entryI9func_declE12obj_ptr_hashIS1_E6ptr_eqIS1_EE6removeERKPS1_(ptr noundef nonnull align 8 dereferenceable(20) %13, ptr noundef nonnull align 8 dereferenceable(8) %3)
  %14 = getelementptr inbounds nuw i8, ptr %.sroa.06.010, i64 16
  %.not1.i.i = icmp eq ptr %14, %8
  br i1 %.not1.i.i, label %_ZN14core_hashtableIN7obj_mapI9func_declP13obj_hashtableIS1_EE13obj_map_entryE8obj_hashINS5_8key_dataEE10default_eqIS8_EE8iteratorppEv.exit, label %.lr.ph.i.i

.lr.ph.i.i:                                       ; preds = %.lr.ph, %16
  %.sroa.06.1 = phi ptr [ %17, %16 ], [ %14, %.lr.ph ]
  %15 = load ptr, ptr %.sroa.06.1, align 8, !tbaa !44
  %switch.i.i = icmp ult ptr %15, inttoptr (i64 2 to ptr)
  br i1 %switch.i.i, label %16, label %_ZN14core_hashtableIN7obj_mapI9func_declP13obj_hashtableIS1_EE13obj_map_entryE8obj_hashINS5_8key_dataEE10default_eqIS8_EE8iteratorppEv.exit

16:                                               ; preds = %.lr.ph.i.i
  %17 = getelementptr inbounds nuw i8, ptr %.sroa.06.1, i64 16
  %.not.i.i = icmp eq ptr %17, %8
  br i1 %.not.i.i, label %_ZN14core_hashtableIN7obj_mapI9func_declP13obj_hashtableIS1_EE13obj_map_entryE8obj_hashINS5_8key_dataEE10default_eqIS8_EE8iteratorppEv.exit, label %.lr.ph.i.i, !llvm.loop !48

_ZN14core_hashtableIN7obj_mapI9func_declP13obj_hashtableIS1_EE13obj_map_entryE8obj_hashINS5_8key_dataEE10default_eqIS8_EE8iteratorppEv.exit: ; preds = %.lr.ph.i.i, %16, %.lr.ph
  %.sroa.06.2 = phi ptr [ %14, %.lr.ph ], [ %.sroa.06.1, %.lr.ph.i.i ], [ %17, %16 ]
  %.not = icmp eq ptr %.sroa.06.2, %8
  br i1 %.not, label %._crit_edge, label %.lr.ph
}